; Function Attrs: mustprogress uwtable
define noundef zeroext i1 @_ZN7Imf_3_418isTiledOpenExrFileERNS_7IStreamE(ptr noundef nonnull align 8 dereferenceable(40) %0) local_unnamed_addr #3 {
  %2 = alloca i8, align 1
  %3 = alloca i8, align 1
  %4 = alloca i8, align 1
  call void @llvm.lifetime.start.p0(i64 1, ptr nonnull %2) #8
  call void @llvm.lifetime.start.p0(i64 1, ptr nonnull %3) #8
  call void @llvm.lifetime.start.p0(i64 1, ptr nonnull %4) #8
  %5 = call noundef zeroext i1 @_ZN7Imf_3_413isOpenExrFileERNS_7IStreamERbS2_S2_(ptr noundef nonnull align 8 dereferenceable(40) %0, ptr noundef nonnull align 1 dereferenceable(1) %2, ptr noundef nonnull align 1 dereferenceable(1) %3, ptr noundef nonnull align 1 dereferenceable(1) %4)
  %6 = load i8, ptr %2, align 1, !range !9
  %7 = trunc nuw i8 %6 to i1
  %8 = select i1 %5, i1 %7, i1 false
  call void @llvm.lifetime.end.p0(i64 1, ptr nonnull %4) #8
  call void @llvm.lifetime.end.p0(i64 1, ptr nonnull %3) #8
  call void @llvm.lifetime.end.p0(i64 1, ptr nonnull %2) #8
  ret i1 %8
}